; ModuleID = 'source-C-CXX/24/491.cpp'
source_filename = "source-C-CXX/24/491.cpp"
target datalayout = "e-m:e-p270:32:32-p271:32:32-p272:64:64-i64:64-f80:128-n8:16:32:64-S128"
target triple = "x86_64-pc-linux-gnu"

%"class.std::ios_base::Init" = type { i8 }
%"class.std::basic_istream" = type { i32 (...)**, i64, %"class.std::basic_ios" }
%"class.std::basic_ios" = type { %"class.std::ios_base", %"class.std::basic_ostream"*, i8, i8, %"class.std::basic_streambuf"*, %"class.std::ctype"*, %"class.std::num_put"*, %"class.std::num_get"* }
%"class.std::ios_base" = type { i32 (...)**, i64, i64, i32, i32, i32, %"struct.std::ios_base::_Callback_list"*, %"struct.std::ios_base::_Words", [8 x %"struct.std::ios_base::_Words"], i32, %"struct.std::ios_base::_Words"*, %"class.std::locale" }
%"struct.std::ios_base::_Callback_list" = type { %"struct.std::ios_base::_Callback_list"*, void (i32, %"class.std::ios_base"*, i32)*, i32, i32 }
%"struct.std::ios_base::_Words" = type { i8*, i64 }
%"class.std::locale" = type { %"class.std::locale::_Impl"* }
%"class.std::locale::_Impl" = type { i32, %"class.std::locale::facet"**, i64, %"class.std::locale::facet"**, i8** }
%"class.std::locale::facet" = type <{ i32 (...)**, i32, [4 x i8] }>
%"class.std::basic_ostream" = type { i32 (...)**, %"class.std::basic_ios" }
%"class.std::basic_streambuf" = type { i32 (...)**, i8*, i8*, i8*, i8*, i8*, i8*, %"class.std::locale" }
%"class.std::ctype" = type <{ %"class.std::locale::facet.base", [4 x i8], %struct.__locale_struct*, i8, [7 x i8], i32*, i32*, i16*, i8, [256 x i8], [256 x i8], i8, [6 x i8] }>
%"class.std::locale::facet.base" = type <{ i32 (...)**, i32 }>
%struct.__locale_struct = type { [13 x %struct.__locale_data*], i16*, i32*, i32*, [13 x i8*] }
%struct.__locale_data = type opaque
%"class.std::num_put" = type { %"class.std::locale::facet.base", [4 x i8] }
%"class.std::num_get" = type { %"class.std::locale::facet.base", [4 x i8] }

@_ZStL8__ioinit = internal global %"class.std::ios_base::Init" zeroinitializer, align 1
@__dso_handle = external hidden global i8
@a = dso_local local_unnamed_addr global [10001 x i32] zeroinitializer, align 16
@len = dso_local local_unnamed_addr global i32 1, align 4
@_ZSt3cin = external global %"class.std::basic_istream", align 8
@_ZSt4cout = external global %"class.std::basic_ostream", align 8
@llvm.global_ctors = appending global [1 x { i32, void ()*, i8* }] [{ i32, void ()*, i8* } { i32 65535, void ()* @_GLOBAL__sub_I_491.cpp, i8* null }]

declare void @_ZNSt8ios_base4InitC1Ev(%"class.std::ios_base::Init"* nonnull align 1 dereferenceable(1)) unnamed_addr #0

; Function Attrs: nounwind
declare void @_ZNSt8ios_base4InitD1Ev(%"class.std::ios_base::Init"* nonnull align 1 dereferenceable(1)) unnamed_addr #1

; Function Attrs: nofree nounwind
declare i32 @__cxa_atexit(void (i8*)*, i8*, i8*) local_unnamed_addr #2

; Function Attrs: mustprogress nofree norecurse nosync nounwind sspstrong uwtable
define dso_local void @_Z3calv() local_unnamed_addr #3 {
  %1 = load i32, i32* @len, align 4, !tbaa !5
  %2 = sext i32 %1 to i64
  %3 = getelementptr inbounds [10001 x i32], [10001 x i32]* @a, i64 0, i64 %2
  %4 = load i32, i32* %3, align 4, !tbaa !5
  %5 = shl nsw i32 %4, 1
  store i32 %5, i32* %3, align 4, !tbaa !5
  %6 = icmp sgt i32 %4, 4
  br i1 %6, label %7, label %12

7:                                                ; preds = %0
  %8 = add nsw i32 %5, -10
  store i32 %8, i32* %3, align 4, !tbaa !5
  %9 = add nsw i32 %1, 1
  store i32 %9, i32* @len, align 4, !tbaa !5
  %10 = sext i32 %9 to i64
  %11 = getelementptr inbounds [10001 x i32], [10001 x i32]* @a, i64 0, i64 %10
  store i32 1, i32* %11, align 4, !tbaa !5
  br label %12

12:                                               ; preds = %7, %0
  %13 = icmp sgt i32 %1, 1
  br i1 %13, label %14, label %33

14:                                               ; preds = %12
  %15 = zext i32 %1 to i64
  br label %16

16:                                               ; preds = %14, %30
  %17 = phi i64 [ %15, %14 ], [ %32, %30 ]
  %18 = phi i32 [ %1, %14 ], [ %19, %30 ]
  %19 = add nsw i32 %18, -1
  %20 = zext i32 %19 to i64
  %21 = getelementptr inbounds [10001 x i32], [10001 x i32]* @a, i64 0, i64 %20
  %22 = load i32, i32* %21, align 4, !tbaa !5
  %23 = shl nsw i32 %22, 1
  store i32 %23, i32* %21, align 4, !tbaa !5
  %24 = icmp sgt i32 %22, 4
  br i1 %24, label %25, label %30

25:                                               ; preds = %16
  %26 = add nsw i32 %23, -10
  store i32 %26, i32* %21, align 4, !tbaa !5
  %27 = getelementptr inbounds [10001 x i32], [10001 x i32]* @a, i64 0, i64 %17
  %28 = load i32, i32* %27, align 4, !tbaa !5
  %29 = add nsw i32 %28, 1
  store i32 %29, i32* %27, align 4, !tbaa !5
  br label %30

30:                                               ; preds = %16, %25
  %31 = icmp sgt i64 %17, 2
  %32 = add nsw i64 %17, -1
  br i1 %31, label %16, label %33, !llvm.loop !9

33:                                               ; preds = %30, %12
  ret void
}

; Function Attrs: argmemonly mustprogress nofree nosync nounwind willreturn
declare void @llvm.lifetime.start.p0i8(i64 immarg, i8* nocapture) #4

; Function Attrs: argmemonly mustprogress nofree nosync nounwind willreturn
declare void @llvm.lifetime.end.p0i8(i64 immarg, i8* nocapture) #4

; Function Attrs: mustprogress norecurse sspstrong uwtable
define dso_local i32 @main() local_unnamed_addr #5 {
  %1 = alloca i32, align 4
  %2 = bitcast i32* %1 to i8*
  call void @llvm.lifetime.start.p0i8(i64 4, i8* nonnull %2) #9
  %3 = call nonnull align 8 dereferenceable(16) %"class.std::basic_istream"* @_ZNSirsERi(%"class.std::basic_istream"* nonnull align 8 dereferenceable(16) @_ZSt3cin, i32* nonnull align 4 dereferenceable(4) %1)
  call void @llvm.memset.p0i8.i64(i8* noundef nonnull align 8 dereferenceable(40000) bitcast (i32* getelementptr inbounds ([10001 x i32], [10001 x i32]* @a, i64 0, i64 2) to i8*), i8 -1, i64 39996, i1 false)
  store i32 1, i32* getelementptr inbounds ([10001 x i32], [10001 x i32]* @a, i64 0, i64 1), align 4, !tbaa !5
  %4 = load i32, i32* %1, align 4, !tbaa !5
  %5 = icmp slt i32 %4, 1
  %6 = load i32, i32* @len, align 4, !tbaa !5
  br i1 %5, label %45, label %7

7:                                                ; preds = %0, %42
  %8 = phi i32 [ %21, %42 ], [ %6, %0 ]
  %9 = phi i32 [ %43, %42 ], [ 1, %0 ]
  %10 = sext i32 %8 to i64
  %11 = getelementptr inbounds [10001 x i32], [10001 x i32]* @a, i64 0, i64 %10
  %12 = load i32, i32* %11, align 4, !tbaa !5
  %13 = shl nsw i32 %12, 1
  store i32 %13, i32* %11, align 4, !tbaa !5
  %14 = icmp sgt i32 %12, 4
  br i1 %14, label %15, label %20

15:                                               ; preds = %7
  %16 = add nsw i32 %13, -10
  store i32 %16, i32* %11, align 4, !tbaa !5
  %17 = add nsw i32 %8, 1
  store i32 %17, i32* @len, align 4, !tbaa !5
  %18 = sext i32 %17 to i64
  %19 = getelementptr inbounds [10001 x i32], [10001 x i32]* @a, i64 0, i64 %18
  store i32 1, i32* %19, align 4, !tbaa !5
  br label %20

20:                                               ; preds = %15, %7
  %21 = phi i32 [ %17, %15 ], [ %8, %7 ]
  %22 = icmp sgt i32 %8, 1
  br i1 %22, label %23, label %42

23:                                               ; preds = %20
  %24 = zext i32 %8 to i64
  br label %25

25:                                               ; preds = %39, %23
  %26 = phi i64 [ %24, %23 ], [ %41, %39 ]
  %27 = phi i32 [ %8, %23 ], [ %28, %39 ]
  %28 = add nsw i32 %27, -1
  %29 = zext i32 %28 to i64
  %30 = getelementptr inbounds [10001 x i32], [10001 x i32]* @a, i64 0, i64 %29
  %31 = load i32, i32* %30, align 4, !tbaa !5
  %32 = shl nsw i32 %31, 1
  store i32 %32, i32* %30, align 4, !tbaa !5
  %33 = icmp sgt i32 %31, 4
  br i1 %33, label %34, label %39

34:                                               ; preds = %25
  %35 = add nsw i32 %32, -10
  store i32 %35, i32* %30, align 4, !tbaa !5
  %36 = getelementptr inbounds [10001 x i32], [10001 x i32]* @a, i64 0, i64 %26
  %37 = load i32, i32* %36, align 4, !tbaa !5
  %38 = add nsw i32 %37, 1
  store i32 %38, i32* %36, align 4, !tbaa !5
  br label %39

39:                                               ; preds = %34, %25
  %40 = icmp sgt i64 %26, 2
  %41 = add nsw i64 %26, -1
  br i1 %40, label %25, label %42, !llvm.loop !9

42:                                               ; preds = %39, %20
  %43 = add nuw i32 %9, 1
  %44 = icmp eq i32 %9, %4
  br i1 %44, label %45, label %7, !llvm.loop !11

45:                                               ; preds = %42, %0
  %46 = phi i32 [ %6, %0 ], [ %21, %42 ]
  %47 = icmp sgt i32 %46, 0
  br i1 %47, label %48, label %57

48:                                               ; preds = %45
  %49 = zext i32 %46 to i64
  br label %50

50:                                               ; preds = %48, %50
  %51 = phi i64 [ %49, %48 ], [ %56, %50 ]
  %52 = getelementptr inbounds [10001 x i32], [10001 x i32]* @a, i64 0, i64 %51
  %53 = load i32, i32* %52, align 4, !tbaa !5
  %54 = call nonnull align 8 dereferenceable(8) %"class.std::basic_ostream"* @_ZNSolsEi(%"class.std::basic_ostream"* nonnull align 8 dereferenceable(8) @_ZSt4cout, i32 %53)
  %55 = icmp sgt i64 %51, 1
  %56 = add nsw i64 %51, -1
  br i1 %55, label %50, label %57, !llvm.loop !12

57:                                               ; preds = %50, %45
  %58 = load i8*, i8** bitcast (%"class.std::basic_ostream"* @_ZSt4cout to i8**), align 8, !tbaa !13
  %59 = getelementptr i8, i8* %58, i64 -24
  %60 = bitcast i8* %59 to i64*
  %61 = load i64, i64* %60, align 8
  %62 = add nsw i64 %61, 240
  %63 = getelementptr inbounds i8, i8* bitcast (%"class.std::basic_ostream"* @_ZSt4cout to i8*), i64 %62
  %64 = bitcast i8* %63 to %"class.std::ctype"**
  %65 = load %"class.std::ctype"*, %"class.std::ctype"** %64, align 8, !tbaa !15
  %66 = icmp eq %"class.std::ctype"* %65, null
  br i1 %66, label %67, label %68

67:                                               ; preds = %57
  call void @_ZSt16__throw_bad_castv() #10
  unreachable

68:                                               ; preds = %57
  %69 = getelementptr inbounds %"class.std::ctype", %"class.std::ctype"* %65, i64 0, i32 8
  %70 = load i8, i8* %69, align 8, !tbaa !19
  %71 = icmp eq i8 %70, 0
  br i1 %71, label %75, label %72

72:                                               ; preds = %68
  %73 = getelementptr inbounds %"class.std::ctype", %"class.std::ctype"* %65, i64 0, i32 9, i64 10
  %74 = load i8, i8* %73, align 1, !tbaa !21
  br label %81

75:                                               ; preds = %68
  call void @_ZNKSt5ctypeIcE13_M_widen_initEv(%"class.std::ctype"* nonnull align 8 dereferenceable(570) %65)
  %76 = bitcast %"class.std::ctype"* %65 to i8 (%"class.std::ctype"*, i8)***
  %77 = load i8 (%"class.std::ctype"*, i8)**, i8 (%"class.std::ctype"*, i8)*** %76, align 8, !tbaa !13
  %78 = getelementptr inbounds i8 (%"class.std::ctype"*, i8)*, i8 (%"class.std::ctype"*, i8)** %77, i64 6
  %79 = load i8 (%"class.std::ctype"*, i8)*, i8 (%"class.std::ctype"*, i8)** %78, align 8
  %80 = call signext i8 %79(%"class.std::ctype"* nonnull align 8 dereferenceable(570) %65, i8 signext 10)
  br label %81

81:                                               ; preds = %72, %75
  %82 = phi i8 [ %74, %72 ], [ %80, %75 ]
  %83 = call nonnull align 8 dereferenceable(8) %"class.std::basic_ostream"* @_ZNSo3putEc(%"class.std::basic_ostream"* nonnull align 8 dereferenceable(8) @_ZSt4cout, i8 signext %82)
  %84 = call nonnull align 8 dereferenceable(8) %"class.std::basic_ostream"* @_ZNSo5flushEv(%"class.std::basic_ostream"* nonnull align 8 dereferenceable(8) %83)
  call void @llvm.lifetime.end.p0i8(i64 4, i8* nonnull %2) #9
  ret i32 0
}

declare nonnull align 8 dereferenceable(16) %"class.std::basic_istream"* @_ZNSirsERi(%"class.std::basic_istream"* nonnull align 8 dereferenceable(16), i32* nonnull align 4 dereferenceable(4)) local_unnamed_addr #0

declare nonnull align 8 dereferenceable(8) %"class.std::basic_ostream"* @_ZNSolsEi(%"class.std::basic_ostream"* nonnull align 8 dereferenceable(8), i32) local_unnamed_addr #0

declare nonnull align 8 dereferenceable(8) %"class.std::basic_ostream"* @_ZNSo3putEc(%"class.std::basic_ostream"* nonnull align 8 dereferenceable(8), i8 signext) local_unnamed_addr #0

declare nonnull align 8 dereferenceable(8) %"class.std::basic_ostream"* @_ZNSo5flushEv(%"class.std::basic_ostream"* nonnull align 8 dereferenceable(8)) local_unnamed_addr #0

; Function Attrs: noreturn
declare void @_ZSt16__throw_bad_castv() local_unnamed_addr #6

declare void @_ZNKSt5ctypeIcE13_M_widen_initEv(%"class.std::ctype"* nonnull align 8 dereferenceable(570)) local_unnamed_addr #0

; Function Attrs: sspstrong uwtable
define internal void @_GLOBAL__sub_I_491.cpp() #7 section ".text.startup" {
  tail call void @_ZNSt8ios_base4InitC1Ev(%"class.std::ios_base::Init"* nonnull align 1 dereferenceable(1) @_ZStL8__ioinit)
  %1 = tail call i32 @__cxa_atexit(void (i8*)* bitcast (void (%"class.std::ios_base::Init"*)* @_ZNSt8ios_base4InitD1Ev to void (i8*)*), i8* getelementptr inbounds (%"class.std::ios_base::Init", %"class.std::ios_base::Init"* @_ZStL8__ioinit, i64 0, i32 0), i8* nonnull @__dso_handle) #9
  ret void
}

; Function Attrs: argmemonly nofree nounwind willreturn writeonly
declare void @llvm.memset.p0i8.i64(i8* nocapture writeonly, i8, i64, i1 immarg) #8


!llvm.module.flags = !{!0, !1, !2, !3}
!llvm.ident = !{!4}

!0 = !{i32 1, !"wchar_size", i32 4}
!1 = !{i32 7, !"PIC Level", i32 2}
!2 = !{i32 7, !"PIE Level", i32 2}
!3 = !{i32 7, !"uwtable", i32 1}
!4 = !{!"clang version 13.0.0"}
!5 = !{!6, !6, i64 0}
!6 = !{!"int", !7, i64 0}
!7 = !{!"omnipotent char", !8, i64 0}
!8 = !{!"Simple C++ TBAA"}
!9 = distinct !{!9, !10}
!10 = !{!"llvm.loop.mustprogress"}
!11 = distinct !{!11, !10}
!12 = distinct !{!12, !10}
!13 = !{!14, !14, i64 0}
!14 = !{!"vtable pointer", !8, i64 0}
!15 = !{!16, !17, i64 240}
!16 = !{!"_ZTSSt9basic_iosIcSt11char_traitsIcEE", !17, i64 216, !7, i64 224, !18, i64 225, !17, i64 232, !17, i64 240, !17, i64 248, !17, i64 256}
!17 = !{!"any pointer", !7, i64 0}
!18 = !{!"bool", !7, i64 0}
!19 = !{!20, !7, i64 56}
!20 = !{!"_ZTSSt5ctypeIcE", !17, i64 16, !18, i64 24, !17, i64 32, !17, i64 40, !17, i64 48, !7, i64 56, !7, i64 57, !7, i64 313, !7, i64 569}
!21 = !{!7, !7, i64 0}
